; Function Attrs: mustprogress uwtable
define hidden noundef range(i64 0, -9223372036854775808) i64 @_ZN3fmt3v114file5writeEPKvm(ptr noundef nonnull readonly align 4 captures(none) dereferenceable(4) %0, ptr noundef readonly captures(none) %1, i64 noundef %2) local_unnamed_addr #6 align 2 personality ptr @__gxx_personality_v0 {
  %4 = alloca %"struct.fmt::v11::detail::format_arg_store.99", align 16
  br label %5

5:                                                ; preds = %.backedge, %3
  %6 = load i32, ptr %0, align 4, !tbaa !24
  %7 = load i32, ptr @_ZN12_GLOBAL__N_111write_countE, align 4, !tbaa !10
  %.not.i = icmp eq i32 %7, 0
  br i1 %.not.i, label %_ZN4test5writeEiPKvm.exit, label %8

8:                                                ; preds = %5
  %9 = add nsw i32 %7, 1
  store i32 %9, ptr @_ZN12_GLOBAL__N_111write_countE, align 4, !tbaa !10
  %.not5.i = icmp eq i32 %7, 3
  br i1 %.not5.i, label %_ZN4test5writeEiPKvm.exit, label %_ZN4test5writeEiPKvm.exit.thread

_ZN4test5writeEiPKvm.exit.thread:                 ; preds = %8
  %10 = tail call ptr @__errno_location() #28
  store i32 4, ptr %10, align 4, !tbaa !10
  br label %.backedge

_ZN4test5writeEiPKvm.exit:                        ; preds = %5, %8
  %11 = tail call i64 @write(i32 noundef %6, ptr noundef readonly %1, i64 noundef %2)
  %12 = icmp eq i64 %11, -1
  br i1 %12, label %_ZN4test5writeEiPKvm.exit._crit_edge, label %.critedge

_ZN4test5writeEiPKvm.exit._crit_edge:             ; preds = %_ZN4test5writeEiPKvm.exit
  %.pre = tail call ptr @__errno_location() #28
  %.pr = load i32, ptr %.pre, align 4, !tbaa !10
  %13 = icmp eq i32 %.pr, 4
  br i1 %13, label %.backedge, label %.critedge.thread

.backedge:                                        ; preds = %_ZN4test5writeEiPKvm.exit._crit_edge, %_ZN4test5writeEiPKvm.exit.thread
  br label %5, !llvm.loop !44

.critedge:                                        ; preds = %_ZN4test5writeEiPKvm.exit
  %14 = icmp slt i64 %11, 0
  br i1 %14, label %.critedge.thread, label %21

.critedge.thread:                                 ; preds = %_ZN4test5writeEiPKvm.exit._crit_edge, %.critedge
  %15 = tail call ptr @__cxa_allocate_exception(i64 32) #29
  %16 = tail call ptr @__errno_location() #28
  %17 = load i32, ptr %16, align 4, !tbaa !10
  call void @llvm.lifetime.start.p0(i64 16, ptr nonnull %4) #29, !noalias !45
  invoke void @_ZN3fmt3v1113vsystem_errorEiNS0_17basic_string_viewIcEENS0_17basic_format_argsINS0_7contextEEE(ptr dead_on_unwind writable sret(%"class.std::system_error") align 8 %15, i32 noundef %17, ptr nonnull @.str.112, i64 20, i64 0, ptr nonnull %4)
          to label %18 unwind label %19

18:                                               ; preds = %.critedge.thread
  call void @llvm.lifetime.end.p0(i64 16, ptr nonnull %4) #29, !noalias !45
  call void @__cxa_throw(ptr %15, ptr nonnull @_ZTISt12system_error, ptr nonnull @_ZNSt12system_errorD1Ev) #31
  unreachable

19:                                               ; preds = %.critedge.thread
  %20 = landingpad { ptr, i32 }
          cleanup
  call void @__cxa_free_exception(ptr %15) #29
  resume { ptr, i32 } %20

21:                                               ; preds = %.critedge
  ret i64 %11
}